target datalayout = "e-m:e-p270:32:32-p271:32:32-p272:64:64-i64:64-i128:128-f80:128-n8:16:32:64-S128"
target triple = "x86_64-pc-linux-gnu"

%struct.FFFrameSync = type { ptr, ptr, i32, %struct.AVRational, i64, ptr, ptr, i32, i32, i8, i8, ptr, i32, i32, i32, i32 }
%struct.AVRational = type { i32, i32 }
%struct.FFFrameSyncIn = type { i32, i32, %struct.AVRational, ptr, ptr, i64, i64, i8, i8, i32, i32 }

@.str.4 = private unnamed_addr constant [29 x i8] c"Impossible to set time base\0A\00", align 1
@.str.5 = private unnamed_addr constant [26 x i8] c"Selected %d/%d time base\0A\00", align 1

; Function Attrs: nounwind uwtable
define i32 @ff_framesync_configure(ptr noundef %0) #0 {
  %2 = alloca i32, align 4
  %3 = alloca ptr, align 8
  %4 = alloca i32, align 4
  %5 = alloca %struct.AVRational, align 4
  %6 = alloca %struct.AVRational, align 4
  %7 = alloca i32, align 4
  store ptr %0, ptr %3, align 8, !tbaa !12
  call void @llvm.lifetime.start.p0(i64 4, ptr %4) #7
  %8 = load ptr, ptr %3, align 8, !tbaa !12
  %9 = getelementptr inbounds nuw %struct.FFFrameSync, ptr %8, i32 0, i32 12
  %10 = load i32, ptr %9, align 8, !tbaa !36
  %11 = icmp ne i32 %10, 0
  br i1 %11, label %12, label %17

12:                                               ; preds = %1
  %13 = load ptr, ptr %3, align 8, !tbaa !12
  %14 = getelementptr inbounds nuw %struct.FFFrameSync, ptr %13, i32 0, i32 14
  %15 = load i32, ptr %14, align 8, !tbaa !37
  %16 = icmp eq i32 %15, 2
  br i1 %16, label %17, label %22

17:                                               ; preds = %12, %1
  %18 = load ptr, ptr %3, align 8, !tbaa !12
  %19 = getelementptr inbounds nuw %struct.FFFrameSync, ptr %18, i32 0, i32 12
  store i32 0, ptr %19, align 8, !tbaa !36
  %20 = load ptr, ptr %3, align 8, !tbaa !12
  %21 = getelementptr inbounds nuw %struct.FFFrameSync, ptr %20, i32 0, i32 14
  store i32 2, ptr %21, align 8, !tbaa !37
  br label %22

22:                                               ; preds = %17, %12
  %23 = load ptr, ptr %3, align 8, !tbaa !12
  %24 = getelementptr inbounds nuw %struct.FFFrameSync, ptr %23, i32 0, i32 13
  %25 = load i32, ptr %24, align 4, !tbaa !38
  %26 = icmp ne i32 %25, 0
  br i1 %26, label %32, label %27

27:                                               ; preds = %22
  %28 = load ptr, ptr %3, align 8, !tbaa !12
  %29 = getelementptr inbounds nuw %struct.FFFrameSync, ptr %28, i32 0, i32 14
  %30 = load i32, ptr %29, align 8, !tbaa !37
  %31 = icmp eq i32 %30, 1
  br i1 %31, label %32, label %37

32:                                               ; preds = %27, %22
  %33 = load ptr, ptr %3, align 8, !tbaa !12
  %34 = getelementptr inbounds nuw %struct.FFFrameSync, ptr %33, i32 0, i32 13
  store i32 1, ptr %34, align 4, !tbaa !38
  %35 = load ptr, ptr %3, align 8, !tbaa !12
  %36 = getelementptr inbounds nuw %struct.FFFrameSync, ptr %35, i32 0, i32 14
  store i32 1, ptr %36, align 8, !tbaa !37
  br label %37

37:                                               ; preds = %32, %27
  %38 = load ptr, ptr %3, align 8, !tbaa !12
  %39 = getelementptr inbounds nuw %struct.FFFrameSync, ptr %38, i32 0, i32 12
  %40 = load i32, ptr %39, align 8, !tbaa !36
  %41 = icmp ne i32 %40, 0
  br i1 %41, label %68, label %42

42:                                               ; preds = %37
  store i32 1, ptr %4, align 4, !tbaa !22
  br label %43

43:                                               ; preds = %64, %42
  %44 = load i32, ptr %4, align 4, !tbaa !22
  %45 = load ptr, ptr %3, align 8, !tbaa !12
  %46 = getelementptr inbounds nuw %struct.FFFrameSync, ptr %45, i32 0, i32 2
  %47 = load i32, ptr %46, align 8, !tbaa !34
  %48 = icmp ult i32 %44, %47
  br i1 %48, label %49, label %67

49:                                               ; preds = %43
  %50 = load ptr, ptr %3, align 8, !tbaa !12
  %51 = getelementptr inbounds nuw %struct.FFFrameSync, ptr %50, i32 0, i32 11
  %52 = load ptr, ptr %51, align 8, !tbaa !35
  %53 = load i32, ptr %4, align 4, !tbaa !22
  %54 = zext i32 %53 to i64
  %55 = getelementptr inbounds nuw %struct.FFFrameSyncIn, ptr %52, i64 %54
  %56 = getelementptr inbounds nuw %struct.FFFrameSyncIn, ptr %55, i32 0, i32 1
  store i32 1, ptr %56, align 4, !tbaa !39
  %57 = load ptr, ptr %3, align 8, !tbaa !12
  %58 = getelementptr inbounds nuw %struct.FFFrameSync, ptr %57, i32 0, i32 11
  %59 = load ptr, ptr %58, align 8, !tbaa !35
  %60 = load i32, ptr %4, align 4, !tbaa !22
  %61 = zext i32 %60 to i64
  %62 = getelementptr inbounds nuw %struct.FFFrameSyncIn, ptr %59, i64 %61
  %63 = getelementptr inbounds nuw %struct.FFFrameSyncIn, ptr %62, i32 0, i32 9
  store i32 0, ptr %63, align 4, !tbaa !42
  br label %64

64:                                               ; preds = %49
  %65 = load i32, ptr %4, align 4, !tbaa !22
  %66 = add i32 %65, 1
  store i32 %66, ptr %4, align 4, !tbaa !22
  br label %43, !llvm.loop !43

67:                                               ; preds = %43
  br label %68

68:                                               ; preds = %67, %37
  %69 = load ptr, ptr %3, align 8, !tbaa !12
  %70 = getelementptr inbounds nuw %struct.FFFrameSync, ptr %69, i32 0, i32 13
  %71 = load i32, ptr %70, align 4, !tbaa !38
  %72 = icmp ne i32 %71, 0
  br i1 %72, label %73, label %92

73:                                               ; preds = %68
  store i32 0, ptr %4, align 4, !tbaa !22
  br label %74

74:                                               ; preds = %88, %73
  %75 = load i32, ptr %4, align 4, !tbaa !22
  %76 = load ptr, ptr %3, align 8, !tbaa !12
  %77 = getelementptr inbounds nuw %struct.FFFrameSync, ptr %76, i32 0, i32 2
  %78 = load i32, ptr %77, align 8, !tbaa !34
  %79 = icmp ult i32 %75, %78
  br i1 %79, label %80, label %91

80:                                               ; preds = %74
  %81 = load ptr, ptr %3, align 8, !tbaa !12
  %82 = getelementptr inbounds nuw %struct.FFFrameSync, ptr %81, i32 0, i32 11
  %83 = load ptr, ptr %82, align 8, !tbaa !35
  %84 = load i32, ptr %4, align 4, !tbaa !22
  %85 = zext i32 %84 to i64
  %86 = getelementptr inbounds nuw %struct.FFFrameSyncIn, ptr %83, i64 %85
  %87 = getelementptr inbounds nuw %struct.FFFrameSyncIn, ptr %86, i32 0, i32 1
  store i32 0, ptr %87, align 4, !tbaa !39
  br label %88

88:                                               ; preds = %80
  %89 = load i32, ptr %4, align 4, !tbaa !22
  %90 = add i32 %89, 1
  store i32 %90, ptr %4, align 4, !tbaa !22
  br label %74, !llvm.loop !45

91:                                               ; preds = %74
  br label %92

92:                                               ; preds = %91, %68
  %93 = load ptr, ptr %3, align 8, !tbaa !12
  %94 = getelementptr inbounds nuw %struct.FFFrameSync, ptr %93, i32 0, i32 3
  %95 = getelementptr inbounds nuw %struct.AVRational, ptr %94, i32 0, i32 0
  %96 = load i32, ptr %95, align 4, !tbaa !46
  %97 = icmp ne i32 %96, 0
  br i1 %97, label %172, label %98

98:                                               ; preds = %92
  store i32 0, ptr %4, align 4, !tbaa !22
  br label %99

99:                                               ; preds = %151, %98
  %100 = load i32, ptr %4, align 4, !tbaa !22
  %101 = load ptr, ptr %3, align 8, !tbaa !12
  %102 = getelementptr inbounds nuw %struct.FFFrameSync, ptr %101, i32 0, i32 2
  %103 = load i32, ptr %102, align 8, !tbaa !34
  %104 = icmp ult i32 %100, %103
  br i1 %104, label %105, label %154

105:                                              ; preds = %99
  %106 = load ptr, ptr %3, align 8, !tbaa !12
  %107 = getelementptr inbounds nuw %struct.FFFrameSync, ptr %106, i32 0, i32 11
  %108 = load ptr, ptr %107, align 8, !tbaa !35
  %109 = load i32, ptr %4, align 4, !tbaa !22
  %110 = zext i32 %109 to i64
  %111 = getelementptr inbounds nuw %struct.FFFrameSyncIn, ptr %108, i64 %110
  %112 = getelementptr inbounds nuw %struct.FFFrameSyncIn, ptr %111, i32 0, i32 9
  %113 = load i32, ptr %112, align 4, !tbaa !42
  %114 = icmp ne i32 %113, 0
  br i1 %114, label %115, label %150

115:                                              ; preds = %105
  %116 = load ptr, ptr %3, align 8, !tbaa !12
  %117 = getelementptr inbounds nuw %struct.FFFrameSync, ptr %116, i32 0, i32 3
  %118 = getelementptr inbounds nuw %struct.AVRational, ptr %117, i32 0, i32 0
  %119 = load i32, ptr %118, align 4, !tbaa !46
  %120 = icmp ne i32 %119, 0
  br i1 %120, label %121, label %139

121:                                              ; preds = %115
  %122 = load ptr, ptr %3, align 8, !tbaa !12
  %123 = getelementptr inbounds nuw %struct.FFFrameSync, ptr %122, i32 0, i32 3
  call void @llvm.lifetime.start.p0(i64 8, ptr %5) #7
  %124 = load ptr, ptr %3, align 8, !tbaa !12
  %125 = getelementptr inbounds nuw %struct.FFFrameSync, ptr %124, i32 0, i32 3
  %126 = load ptr, ptr %3, align 8, !tbaa !12
  %127 = getelementptr inbounds nuw %struct.FFFrameSync, ptr %126, i32 0, i32 11
  %128 = load ptr, ptr %127, align 8, !tbaa !35
  %129 = load i32, ptr %4, align 4, !tbaa !22
  %130 = zext i32 %129 to i64
  %131 = getelementptr inbounds nuw %struct.FFFrameSyncIn, ptr %128, i64 %130
  %132 = getelementptr inbounds nuw %struct.FFFrameSyncIn, ptr %131, i32 0, i32 2
  %133 = getelementptr inbounds nuw %struct.AVRational, ptr %6, i32 0, i32 0
  store i32 1, ptr %133, align 4, !tbaa !47
  %134 = getelementptr inbounds nuw %struct.AVRational, ptr %6, i32 0, i32 1
  store i32 1000000, ptr %134, align 4, !tbaa !48
  %135 = load i64, ptr %125, align 4
  %136 = load i64, ptr %132, align 8
  %137 = load i64, ptr %6, align 4
  %138 = call i64 @av_gcd_q(i64 %135, i64 %136, i32 noundef 500000, i64 %137)
  store i64 %138, ptr %5, align 4
  call void @llvm.memcpy.p0.p0.i64(ptr align 4 %123, ptr align 4 %5, i64 8, i1 false), !tbaa.struct !49
  call void @llvm.lifetime.end.p0(i64 8, ptr %5) #7
  br label %149

139:                                              ; preds = %115
  %140 = load ptr, ptr %3, align 8, !tbaa !12
  %141 = getelementptr inbounds nuw %struct.FFFrameSync, ptr %140, i32 0, i32 3
  %142 = load ptr, ptr %3, align 8, !tbaa !12
  %143 = getelementptr inbounds nuw %struct.FFFrameSync, ptr %142, i32 0, i32 11
  %144 = load ptr, ptr %143, align 8, !tbaa !35
  %145 = load i32, ptr %4, align 4, !tbaa !22
  %146 = zext i32 %145 to i64
  %147 = getelementptr inbounds nuw %struct.FFFrameSyncIn, ptr %144, i64 %146
  %148 = getelementptr inbounds nuw %struct.FFFrameSyncIn, ptr %147, i32 0, i32 2
  call void @llvm.memcpy.p0.p0.i64(ptr align 4 %141, ptr align 8 %148, i64 8, i1 false), !tbaa.struct !49
  br label %149

149:                                              ; preds = %139, %121
  br label %150

150:                                              ; preds = %149, %105
  br label %151

151:                                              ; preds = %150
  %152 = load i32, ptr %4, align 4, !tbaa !22
  %153 = add i32 %152, 1
  store i32 %153, ptr %4, align 4, !tbaa !22
  br label %99, !llvm.loop !50

154:                                              ; preds = %99
  %155 = load ptr, ptr %3, align 8, !tbaa !12
  %156 = getelementptr inbounds nuw %struct.FFFrameSync, ptr %155, i32 0, i32 3
  %157 = getelementptr inbounds nuw %struct.AVRational, ptr %156, i32 0, i32 0
  %158 = load i32, ptr %157, align 4, !tbaa !46
  %159 = icmp ne i32 %158, 0
  br i1 %159, label %162, label %160

160:                                              ; preds = %154
  %161 = load ptr, ptr %3, align 8, !tbaa !12
  call void (ptr, i32, ptr, ...) @av_log(ptr noundef %161, i32 noundef 16, ptr noundef @.str.4)
  store i32 -22, ptr %2, align 4
  store i32 1, ptr %7, align 4
  br label %201

162:                                              ; preds = %154
  %163 = load ptr, ptr %3, align 8, !tbaa !12
  %164 = load ptr, ptr %3, align 8, !tbaa !12
  %165 = getelementptr inbounds nuw %struct.FFFrameSync, ptr %164, i32 0, i32 3
  %166 = getelementptr inbounds nuw %struct.AVRational, ptr %165, i32 0, i32 0
  %167 = load i32, ptr %166, align 4, !tbaa !46
  %168 = load ptr, ptr %3, align 8, !tbaa !12
  %169 = getelementptr inbounds nuw %struct.FFFrameSync, ptr %168, i32 0, i32 3
  %170 = getelementptr inbounds nuw %struct.AVRational, ptr %169, i32 0, i32 1
  %171 = load i32, ptr %170, align 4, !tbaa !51
  call void (ptr, i32, ptr, ...) @av_log(ptr noundef %163, i32 noundef 40, ptr noundef @.str.5, i32 noundef %167, i32 noundef %171)
  br label %172

172:                                              ; preds = %162, %92
  store i32 0, ptr %4, align 4, !tbaa !22
  br label %173

173:                                              ; preds = %194, %172
  %174 = load i32, ptr %4, align 4, !tbaa !22
  %175 = load ptr, ptr %3, align 8, !tbaa !12
  %176 = getelementptr inbounds nuw %struct.FFFrameSync, ptr %175, i32 0, i32 2
  %177 = load i32, ptr %176, align 8, !tbaa !34
  %178 = icmp ult i32 %174, %177
  br i1 %178, label %179, label %197

179:                                              ; preds = %173
  %180 = load ptr, ptr %3, align 8, !tbaa !12
  %181 = getelementptr inbounds nuw %struct.FFFrameSync, ptr %180, i32 0, i32 11
  %182 = load ptr, ptr %181, align 8, !tbaa !35
  %183 = load i32, ptr %4, align 4, !tbaa !22
  %184 = zext i32 %183 to i64
  %185 = getelementptr inbounds nuw %struct.FFFrameSyncIn, ptr %182, i64 %184
  %186 = getelementptr inbounds nuw %struct.FFFrameSyncIn, ptr %185, i32 0, i32 6
  store i64 -9223372036854775808, ptr %186, align 8, !tbaa !52
  %187 = load ptr, ptr %3, align 8, !tbaa !12
  %188 = getelementptr inbounds nuw %struct.FFFrameSync, ptr %187, i32 0, i32 11
  %189 = load ptr, ptr %188, align 8, !tbaa !35
  %190 = load i32, ptr %4, align 4, !tbaa !22
  %191 = zext i32 %190 to i64
  %192 = getelementptr inbounds nuw %struct.FFFrameSyncIn, ptr %189, i64 %191
  %193 = getelementptr inbounds nuw %struct.FFFrameSyncIn, ptr %192, i32 0, i32 5
  store i64 -9223372036854775808, ptr %193, align 8, !tbaa !53
  br label %194

194:                                              ; preds = %179
  %195 = load i32, ptr %4, align 4, !tbaa !22
  %196 = add i32 %195, 1
  store i32 %196, ptr %4, align 4, !tbaa !22
  br label %173, !llvm.loop !54

197:                                              ; preds = %173
  %198 = load ptr, ptr %3, align 8, !tbaa !12
  %199 = getelementptr inbounds nuw %struct.FFFrameSync, ptr %198, i32 0, i32 8
  store i32 -1, ptr %199, align 4, !tbaa !55
  %200 = load ptr, ptr %3, align 8, !tbaa !12
  call void @framesync_sync_level_update(ptr noundef %200, i64 noundef -9223372036854775808)
  store i32 0, ptr %2, align 4
  store i32 1, ptr %7, align 4
  br label %201

201:                                              ; preds = %197, %160
  call void @llvm.lifetime.end.p0(i64 4, ptr %4) #7
  %202 = load i32, ptr %2, align 4
  ret i32 %202
}