; Function Attrs: nounwind uwtable
define range(i32 -22, 1) i32 @ff_framesync_configure(ptr noundef %0) local_unnamed_addr #3 {
  %2 = getelementptr inbounds nuw i8, ptr %0, i64 80
  %3 = load i32, ptr %2, align 8, !tbaa !30
  %.not = icmp eq i32 %3, 0
  br i1 %.not, label %.thread, label %4

4:                                                ; preds = %1
  %5 = getelementptr inbounds nuw i8, ptr %0, i64 88
  %6 = load i32, ptr %5, align 8, !tbaa !31
  %7 = icmp eq i32 %6, 2
  br i1 %7, label %.thread, label %8

8:                                                ; preds = %4
  %9 = getelementptr inbounds nuw i8, ptr %0, i64 84
  %10 = load i32, ptr %9, align 4, !tbaa !32
  %.not53 = icmp ne i32 %10, 0
  %11 = icmp eq i32 %6, 1
  %or.cond = or i1 %.not53, %11
  br i1 %or.cond, label %.loopexit62.thread107, label %.loopexit

.thread:                                          ; preds = %1, %4
  store i32 0, ptr %2, align 8, !tbaa !30
  %12 = getelementptr inbounds nuw i8, ptr %0, i64 88
  store i32 2, ptr %12, align 8, !tbaa !31
  %13 = getelementptr inbounds nuw i8, ptr %0, i64 84
  %14 = load i32, ptr %13, align 4, !tbaa !32
  %.not5390 = icmp eq i32 %14, 0
  br i1 %.not5390, label %.preheader61, label %16

.loopexit62.thread107:                            ; preds = %8
  store i32 1, ptr %9, align 4, !tbaa !32
  %15 = getelementptr inbounds nuw i8, ptr %0, i64 88
  store i32 1, ptr %15, align 8, !tbaa !31
  br label %.preheader60

16:                                               ; preds = %.thread
  store i32 1, ptr %13, align 4, !tbaa !32
  %17 = getelementptr inbounds nuw i8, ptr %0, i64 88
  store i32 1, ptr %17, align 8, !tbaa !31
  br label %.preheader61

.preheader61:                                     ; preds = %.thread, %16
  %18 = getelementptr inbounds nuw i8, ptr %0, i64 16
  %19 = load i32, ptr %18, align 8, !tbaa !28
  %20 = icmp ugt i32 %19, 1
  br i1 %20, label %.lr.ph, label %.loopexit62

.lr.ph:                                           ; preds = %.preheader61
  %21 = getelementptr inbounds nuw i8, ptr %0, i64 72
  %22 = load ptr, ptr %21, align 8, !tbaa !29
  %wide.trip.count = zext i32 %19 to i64
  br label %23

23:                                               ; preds = %.lr.ph, %23
  %indvars.iv = phi i64 [ 1, %.lr.ph ], [ %indvars.iv.next, %23 ]
  %24 = getelementptr inbounds nuw %struct.FFFrameSyncIn, ptr %22, i64 %indvars.iv, i32 1
  store i32 1, ptr %24, align 4, !tbaa !33
  %25 = getelementptr inbounds nuw %struct.FFFrameSyncIn, ptr %22, i64 %indvars.iv, i32 9
  store i32 0, ptr %25, align 4, !tbaa !36
  %indvars.iv.next = add nuw nsw i64 %indvars.iv, 1
  %exitcond.not = icmp eq i64 %indvars.iv.next, %wide.trip.count
  br i1 %exitcond.not, label %.loopexit62, label %23, !llvm.loop !37

.loopexit62:                                      ; preds = %23, %.preheader61
  br i1 %.not5390, label %.loopexit, label %.preheader60

.preheader60:                                     ; preds = %.loopexit62.thread107, %.loopexit62
  %26 = getelementptr inbounds nuw i8, ptr %0, i64 16
  %27 = load i32, ptr %26, align 8, !tbaa !28
  %.not72 = icmp eq i32 %27, 0
  br i1 %.not72, label %.loopexit, label %.lr.ph65

.lr.ph65:                                         ; preds = %.preheader60
  %28 = getelementptr inbounds nuw i8, ptr %0, i64 72
  %29 = load ptr, ptr %28, align 8, !tbaa !29
  %wide.trip.count79 = zext i32 %27 to i64
  br label %30

30:                                               ; preds = %.lr.ph65, %30
  %indvars.iv76 = phi i64 [ 0, %.lr.ph65 ], [ %indvars.iv.next77, %30 ]
  %31 = getelementptr inbounds nuw %struct.FFFrameSyncIn, ptr %29, i64 %indvars.iv76, i32 1
  store i32 0, ptr %31, align 4, !tbaa !33
  %indvars.iv.next77 = add nuw nsw i64 %indvars.iv76, 1
  %exitcond80.not = icmp eq i64 %indvars.iv.next77, %wide.trip.count79
  br i1 %exitcond80.not, label %.loopexit, label %30, !llvm.loop !39

.loopexit:                                        ; preds = %30, %8, %.preheader60, %.loopexit62
  %32 = getelementptr inbounds nuw i8, ptr %0, i64 20
  %33 = load i32, ptr %32, align 4, !tbaa !40
  %.not56 = icmp eq i32 %33, 0
  br i1 %.not56, label %.preheader, label %64

.preheader:                                       ; preds = %.loopexit
  %34 = getelementptr inbounds nuw i8, ptr %0, i64 16
  %35 = load i32, ptr %34, align 8, !tbaa !28
  %.not73 = icmp eq i32 %35, 0
  br i1 %.not73, label %._crit_edge.thread, label %.lr.ph67

.lr.ph67:                                         ; preds = %.preheader
  %36 = getelementptr inbounds nuw i8, ptr %0, i64 72
  br label %37

37:                                               ; preds = %.lr.ph67, %55
  %38 = phi i32 [ 0, %.lr.ph67 ], [ %56, %55 ]
  %39 = phi i32 [ %35, %.lr.ph67 ], [ %57, %55 ]
  %40 = phi i32 [ 0, %.lr.ph67 ], [ %58, %55 ]
  %indvars.iv81 = phi i64 [ 0, %.lr.ph67 ], [ %indvars.iv.next82, %55 ]
  %41 = load ptr, ptr %36, align 8, !tbaa !29
  %42 = getelementptr inbounds nuw %struct.FFFrameSyncIn, ptr %41, i64 %indvars.iv81
  %43 = getelementptr inbounds nuw i8, ptr %42, i64 52
  %44 = load i32, ptr %43, align 4, !tbaa !36
  %.not58 = icmp eq i32 %44, 0
  br i1 %.not58, label %55, label %45

45:                                               ; preds = %37
  %.not59 = icmp eq i32 %40, 0
  %46 = getelementptr inbounds nuw i8, ptr %42, i64 8
  br i1 %.not59, label %52, label %47

47:                                               ; preds = %45
  %48 = load i64, ptr %32, align 4
  %49 = load i64, ptr %46, align 8
  %50 = tail call i64 @av_gcd_q(i64 %48, i64 %49, i32 noundef 500000, i64 4294967296000001) #8
  store i64 %50, ptr %32, align 4
  %51 = trunc i64 %50 to i32
  %.pre = load i32, ptr %34, align 8, !tbaa !28
  br label %55

52:                                               ; preds = %45
  %53 = load i64, ptr %46, align 8
  store i64 %53, ptr %32, align 4
  %54 = trunc i64 %53 to i32
  br label %55

55:                                               ; preds = %37, %52, %47
  %56 = phi i32 [ %38, %37 ], [ %54, %52 ], [ %51, %47 ]
  %57 = phi i32 [ %39, %37 ], [ %39, %52 ], [ %.pre, %47 ]
  %58 = phi i32 [ %40, %37 ], [ %54, %52 ], [ %51, %47 ]
  %indvars.iv.next82 = add nuw nsw i64 %indvars.iv81, 1
  %59 = zext i32 %57 to i64
  %60 = icmp samesign ult i64 %indvars.iv.next82, %59
  br i1 %60, label %37, label %._crit_edge, !llvm.loop !41

._crit_edge:                                      ; preds = %55
  %.not57 = icmp eq i32 %56, 0
  br i1 %.not57, label %._crit_edge.thread, label %61

._crit_edge.thread:                               ; preds = %.preheader, %._crit_edge
  tail call void (ptr, i32, ptr, ...) @av_log(ptr noundef nonnull %0, i32 noundef 16, ptr noundef nonnull @.str.4) #8
  br label %73

61:                                               ; preds = %._crit_edge
  %62 = getelementptr inbounds nuw i8, ptr %0, i64 24
  %63 = load i32, ptr %62, align 4, !tbaa !42
  tail call void (ptr, i32, ptr, ...) @av_log(ptr noundef nonnull %0, i32 noundef 40, ptr noundef nonnull @.str.5, i32 noundef %56, i32 noundef %63) #8
  br label %64

64:                                               ; preds = %61, %.loopexit
  %65 = getelementptr inbounds nuw i8, ptr %0, i64 16
  %66 = load i32, ptr %65, align 8, !tbaa !28
  %.not74 = icmp eq i32 %66, 0
  br i1 %.not74, label %._crit_edge71, label %.lr.ph70

.lr.ph70:                                         ; preds = %64
  %67 = getelementptr inbounds nuw i8, ptr %0, i64 72
  %68 = load ptr, ptr %67, align 8, !tbaa !29
  %wide.trip.count87 = zext i32 %66 to i64
  br label %69

69:                                               ; preds = %.lr.ph70, %69
  %indvars.iv84 = phi i64 [ 0, %.lr.ph70 ], [ %indvars.iv.next85, %69 ]
  %70 = getelementptr inbounds nuw %struct.FFFrameSyncIn, ptr %68, i64 %indvars.iv84, i32 6
  store i64 -9223372036854775808, ptr %70, align 8, !tbaa !43
  %71 = getelementptr inbounds nuw %struct.FFFrameSyncIn, ptr %68, i64 %indvars.iv84, i32 5
  store i64 -9223372036854775808, ptr %71, align 8, !tbaa !44
  %indvars.iv.next85 = add nuw nsw i64 %indvars.iv84, 1
  %exitcond88.not = icmp eq i64 %indvars.iv.next85, %wide.trip.count87
  br i1 %exitcond88.not, label %._crit_edge71, label %69, !llvm.loop !45

._crit_edge71:                                    ; preds = %69, %64
  %72 = getelementptr inbounds nuw i8, ptr %0, i64 60
  store i32 -1, ptr %72, align 4, !tbaa !46
  tail call fastcc void @framesync_sync_level_update(ptr noundef nonnull %0, i64 noundef -9223372036854775808)
  br label %73

73:                                               ; preds = %._crit_edge71, %._crit_edge.thread
  %.0 = phi i32 [ 0, %._crit_edge71 ], [ -22, %._crit_edge.thread ]
  ret i32 %.0
}